Microsoft (R) Macro Assembler Version 5.00                  1/18/23 22:45:43
                                                             Page     1-1


       1				﻿ ; 
MAIN.ASM(1): warning A4001: Extra characters on line
       2				 ; File Name: MAIN.ASM 
       3				 ; 
       4				 ; CopyLeft (C) 2023, Picasso's Fantasy
					 Notepad. All rights reserved. 
       5				 ; 
       6				 ; Author: Pablo Picasso G. (PabloPicas
					so.G@gmail.com) 
       7				 ; 
       8				 ; Version: 1.0.0.build011823 
       9				 ; 
      10				 ; Date: 2023 / 01 / 18 
      11				 ; 
      12				 ; Description: 這乙章節很無聊
					「INT 21H: DOS 中斷」的鍵盤中
					服務； 
      13				 ;              DOS 的第 0A 號中斷
					服務：將鍵盤的輸入，先移動
					到緩衝區；DS:DX 為緩衝區的起
					始位址 
      14				 ;              至於緩衝區 (Buffer
					)的結構，請參考課本 Page 14-7 
					這裡不贅述。 
      15				 ; 
      16				 
      17				.MODEL	SMALL 
      18				 
      19 0400				.STACK 
      20				 
      21 0000				.DATA 
      22 0000  0B				BUF  DB  11, 10 DUP(0), '$'  ; 
					搭配 DOS 的第 0A 號中斷服務的
					用法，宣告緩衝區的格式 (樣
					) 
      23       000A[			
      24	   00			
      25			 ]	
      26       24			
      27 000C  0D 0A 55 53 45 52 20		MSG  DB  0DH, 0AH, 'USER KEY IN
					: $' 
      28       4B 45 59 20 49 4E 3A	
      29       20 24			
      30				 
      31 0000				.CODE 
      32 0000				main: 
      33 0000  B8 ---- R			MOV  AX, @DATA               ; 
					把 .DATA Segment 的位址傳送到 AX
					 暫存器；即 .DATA Segment 的起
					位址放到 AX 
      34 0003  8E D8				MOV  DS, AX                  ; 
					把 AX Register 的記憶體位址設
					給 Data Segment Register 
      35 0005  BA 0000 R			MOV  DX, OFFSET BUF          ; 
Microsoft (R) Macro Assembler Version 5.00                  1/18/23 22:45:43
                                                             Page     1-2


					將 BUF 的記憶體位址，再加上
					移量的值，移動到 DX Register 
      36 0008  B4 0A				MOV  AH, 0AH                 ; 
					DOS 的第 0A 號中斷服務：將鍵
					的輸入，先移動到緩衝區 
      37 000A  CD 21				INT  21H                     ; 
					INT 21H: DOS 中斷 
      38				  ; 顯示字串："\nUSER KEY IN: \0" 
      39 000C  BA 000C R			MOV  DX, OFFSET MSG          ; 
					將 MSG 的記憶體位址，再加上
					移量的值，移動到 DX Register 
      40 000F  B4 09				MOV  AH, 09H                 ; 
					DOS 的第 09 號中斷服務 (顯示
					串)；DX Register 為要顯示的位
					 
      41 0011  CD 21				INT  21H                     ; 
					INT 21H: DOS 中斷 
      42				  ; 顯示剛剛儲存在緩衝區的
					串 
      43 0013  BB 0000 R			MOV  BX, OFFSET BUF          ; 
					將 BUF 的記憶體位址，再加上
					移量的值，移動到 BX Register 
      44 0016  83 C3 02				ADD  BX, 2                   ; 
					將 BX Register 的內容 (記憶體位
					址)再 +２；即 BUF 的前２ Bytes 
					(11 & 10)不要 
      45 0019				printc: 
      46 0019  8A 17				MOV  DL, BYTE PTR DS:[BX]    ; 
					將 BUF 的記憶體位址 +２ 所指
					的字元，移動到 DL (DX Low Byte
					) 
      47 001B  80 FA 0D				CMP  DL, 0DH                 ; 
					比對 DL (DX Low Byte) 和數值 0x0D 
					是否一樣？ 
      48 001E  74 07				JE   ENDDOS                  ; 
					如果一樣：就跳躍到 ENDDOS 標
					 (結束程式) 
      49 0020  B4 02				MOV  AH, 02H                 ; 
					如果不一樣：DOS 的第 02 號中
					服務 (顯示輸出)；DL (DX Low By
					te)為輸出的字元 
      50 0022  CD 21				INT  21H                     ; 
					INT 21H: DOS 中斷 
      51 0024  43				INC  BX                      ; 
					將 BX 的記憶體位址 +１再儲存
					回 BX Register 
      52 0025  EB F2				JMP  printc                  ; 
					跳躍到 printc 標籤 
      53 0027				ENDDOS: 
      54 0027  B4 4C				MOV  AH, 4CH                 ; 
					DOS 的第 4C 號中斷服務 (帶回
					值結束)；AL (AX Low Byte)為回傳
					值 
      55 0029  CD 21				INT  21H                     ; 
Microsoft (R) Macro Assembler Version 5.00                  1/18/23 22:45:43
                                                             Page     1-3


					INT 21H: DOS 中斷 
      56 002B				END main 
Microsoft (R) Macro Assembler Version 5.00                  1/18/23 22:45:43
                                                             Symbols-1


Segments and Groups:

                N a m e         	Length	 Align	Combine Class

DGROUP . . . . . . . . . . . . .  	GROUP
  _DATA  . . . . . . . . . . . .  	001C	WORD	PUBLIC	'DATA'
  STACK  . . . . . . . . . . . .  	0400	PARA	STACK	'STACK'
_TEXT  . . . . . . . . . . . . .  	002B	WORD	PUBLIC	'CODE'

Symbols:            

                N a m e         	Type	 Value	 Attr

BUF  . . . . . . . . . . . . . .  	L BYTE	0000	_DATA

ENDDOS . . . . . . . . . . . . .  	L NEAR	0027	_TEXT

MAIN . . . . . . . . . . . . . .  	L NEAR	0000	_TEXT
MSG  . . . . . . . . . . . . . .  	L BYTE	000C	_DATA

PRINTC . . . . . . . . . . . . .  	L NEAR	0019	_TEXT

@CODE  . . . . . . . . . . . . .  	TEXT  _TEXT		
@CODESIZE  . . . . . . . . . . .  	TEXT  0		
@DATASIZE  . . . . . . . . . . .  	TEXT  0		
@FILENAME  . . . . . . . . . . .  	TEXT  MAIN		


     50 Source  Lines
     50 Total   Lines
     19 Symbols

  50392 + 466152 Bytes symbol space free

      1 Warning Errors
      0 Severe  Errors
